ARM GAS  /var/folders/bp/ytvqs5756l50d7lg2fzmjpcr0000gn/T//ccfOewdF.s 			page 1


   1              		.cpu cortex-m0
   2              		.arch armv6s-m
   3              		.fpu softvfp
   4              		.eabi_attribute 20, 1
   5              		.eabi_attribute 21, 1
   6              		.eabi_attribute 23, 3
   7              		.eabi_attribute 24, 1
   8              		.eabi_attribute 25, 1
   9              		.eabi_attribute 26, 1
  10              		.eabi_attribute 30, 1
  11              		.eabi_attribute 34, 0
  12              		.eabi_attribute 18, 4
  13              		.file	"state_machine.c"
  14              		.text
  15              	.Ltext0:
  16              		.cfi_sections	.debug_frame
  17              		.file 1 "Core/Src/state_machine.c"
  18              		.section	.text.state_machine_initialize,"ax",%progbits
  19              		.align	1
  20              		.global	state_machine_initialize
  21              		.syntax unified
  22              		.code	16
  23              		.thumb_func
  25              	state_machine_initialize:
  26              	.LFB40:
   1:Core/Src/state_machine.c **** #include "state_machine.h"
   2:Core/Src/state_machine.c **** 
   3:Core/Src/state_machine.c **** device_state_t current_state;
   4:Core/Src/state_machine.c **** 
   5:Core/Src/state_machine.c **** void state_machine_initialize() {
  27              		.loc 1 5 33 view -0
  28              		.cfi_startproc
  29              		@ args = 0, pretend = 0, frame = 0
  30              		@ frame_needed = 0, uses_anonymous_args = 0
  31              		@ link register save eliminated.
   6:Core/Src/state_machine.c ****     current_state = TEST_STATE;
  32              		.loc 1 6 5 view .LVU1
  33              		.loc 1 6 19 is_stmt 0 view .LVU2
  34 0000 014B     		ldr	r3, .L2
  35 0002 0622     		movs	r2, #6
  36 0004 1A70     		strb	r2, [r3]
   7:Core/Src/state_machine.c **** }
  37              		.loc 1 7 1 view .LVU3
  38              		@ sp needed
  39 0006 7047     		bx	lr
  40              	.L3:
  41              		.align	2
  42              	.L2:
  43 0008 00000000 		.word	current_state
  44              		.cfi_endproc
  45              	.LFE40:
  47              		.section	.text.handle_test_state,"ax",%progbits
  48              		.align	1
  49              		.global	handle_test_state
  50              		.syntax unified
  51              		.code	16
  52              		.thumb_func
ARM GAS  /var/folders/bp/ytvqs5756l50d7lg2fzmjpcr0000gn/T//ccfOewdF.s 			page 2


  54              	handle_test_state:
  55              	.LFB42:
   8:Core/Src/state_machine.c **** 
   9:Core/Src/state_machine.c **** void state_machine_update() {
  10:Core/Src/state_machine.c ****     switch (current_state) {
  11:Core/Src/state_machine.c ****         case DEVICE_STATE_SLEEP_MODE:
  12:Core/Src/state_machine.c ****             // handle_sleep_mode(sm);
  13:Core/Src/state_machine.c ****             break;
  14:Core/Src/state_machine.c ****         case DEVICE_STATE_ACTIVE_MODE:
  15:Core/Src/state_machine.c ****             // handle_active_mode(sm);
  16:Core/Src/state_machine.c ****             break;
  17:Core/Src/state_machine.c ****         case DEVICE_STATE_CALIBRATION_MODE:
  18:Core/Src/state_machine.c ****             // handle_calibration_mode(sm);
  19:Core/Src/state_machine.c ****             break;
  20:Core/Src/state_machine.c ****         case DEVICE_STATE_ACTIVITY_MODE:
  21:Core/Src/state_machine.c ****             // handle_activity_mode(sm);
  22:Core/Src/state_machine.c ****             break;
  23:Core/Src/state_machine.c ****         case DEVICE_STATE_BAD_POSTURE_STATE:
  24:Core/Src/state_machine.c ****             // handle_bad_posture_state(sm);
  25:Core/Src/state_machine.c ****             break;
  26:Core/Src/state_machine.c ****         case DEVICE_STATE_GOOD_POSTURE_STATE:
  27:Core/Src/state_machine.c ****             // handle_good_posture_state(sm);
  28:Core/Src/state_machine.c ****             break;
  29:Core/Src/state_machine.c ****         case TEST_STATE:
  30:Core/Src/state_machine.c ****             handle_test_state();
  31:Core/Src/state_machine.c ****             break;
  32:Core/Src/state_machine.c ****     }
  33:Core/Src/state_machine.c **** }
  34:Core/Src/state_machine.c **** 
  35:Core/Src/state_machine.c **** 
  36:Core/Src/state_machine.c **** void handle_test_state() {
  56              		.loc 1 36 26 is_stmt 1 view -0
  57              		.cfi_startproc
  58              		@ args = 0, pretend = 0, frame = 0
  59              		@ frame_needed = 0, uses_anonymous_args = 0
  60 0000 70B5     		push	{r4, r5, r6, lr}
  61              	.LCFI0:
  62              		.cfi_def_cfa_offset 16
  63              		.cfi_offset 4, -16
  64              		.cfi_offset 5, -12
  65              		.cfi_offset 6, -8
  66              		.cfi_offset 14, -4
  37:Core/Src/state_machine.c ****     // Enable the haptic feedback controller
  38:Core/Src/state_machine.c ****     haptic_feedback_enable();
  67              		.loc 1 38 5 view .LVU5
  68 0002 FFF7FEFF 		bl	haptic_feedback_enable
  69              	.LVL0:
  39:Core/Src/state_machine.c **** 
  40:Core/Src/state_machine.c ****     led_execute_sequence(LED_SEQ_THREE_BLINKS);
  70              		.loc 1 40 5 view .LVU6
  71 0006 0120     		movs	r0, #1
  72 0008 FFF7FEFF 		bl	led_execute_sequence
  73              	.LVL1:
  41:Core/Src/state_machine.c **** 
  42:Core/Src/state_machine.c ****     // Wait a moment to ensure the controller is ready
  43:Core/Src/state_machine.c ****     HAL_Delay(1000);
  74              		.loc 1 43 5 view .LVU7
ARM GAS  /var/folders/bp/ytvqs5756l50d7lg2fzmjpcr0000gn/T//ccfOewdF.s 			page 3


  75 000c FA20     		movs	r0, #250
  76 000e 8000     		lsls	r0, r0, #2
  77 0010 FFF7FEFF 		bl	HAL_Delay
  78              	.LVL2:
  44:Core/Src/state_machine.c **** 
  45:Core/Src/state_machine.c ****     led_execute_sequence(LED_SEQ_DOUBLE_BLINK);
  79              		.loc 1 45 5 view .LVU8
  80 0014 0220     		movs	r0, #2
  81 0016 FFF7FEFF 		bl	led_execute_sequence
  82              	.LVL3:
  46:Core/Src/state_machine.c **** 
  47:Core/Src/state_machine.c ****     haptic_feedback_set_actuator_type(LRA);
  83              		.loc 1 47 5 view .LVU9
  84 001a 0120     		movs	r0, #1
  85 001c FFF7FEFF 		bl	haptic_feedback_set_actuator_type
  86              	.LVL4:
  48:Core/Src/state_machine.c **** 
  49:Core/Src/state_machine.c ****     // Test setting the mode to internal trigger mode
  50:Core/Src/state_machine.c ****     int8_t HAL_STATUS = haptic_feedback_set_mode(DRV2605L_MODE_INTERNAL_TRIGGER);
  87              		.loc 1 50 5 view .LVU10
  88              		.loc 1 50 25 is_stmt 0 view .LVU11
  89 0020 0020     		movs	r0, #0
  90 0022 FFF7FEFF 		bl	haptic_feedback_set_mode
  91              	.LVL5:
  51:Core/Src/state_machine.c **** 
  52:Core/Src/state_machine.c ****     // Play a basic waveform from the library
  53:Core/Src/state_machine.c ****     if (haptic_feedback_play_waveform(1) == HAL_OK) { // Play waveform index 1
  92              		.loc 1 53 5 is_stmt 1 view .LVU12
  93              		.loc 1 53 9 is_stmt 0 view .LVU13
  94 0026 0120     		movs	r0, #1
  95 0028 FFF7FEFF 		bl	haptic_feedback_play_waveform
  96              	.LVL6:
  97              		.loc 1 53 8 discriminator 1 view .LVU14
  98 002c 0028     		cmp	r0, #0
  99 002e 04D0     		beq	.L10
 100              	.L5:
  54:Core/Src/state_machine.c ****         haptic_feedback_start();
  55:Core/Src/state_machine.c ****         HAL_Delay(1000); // Allow the waveform to play for 1 second
  56:Core/Src/state_machine.c ****         haptic_feedback_stop();
  57:Core/Src/state_machine.c ****     }
  58:Core/Src/state_machine.c **** 
  59:Core/Src/state_machine.c ****     led_execute_sequence(LED_SEQ_FADE_IN_OUT);
 101              		.loc 1 59 5 is_stmt 1 view .LVU15
 102 0030 0320     		movs	r0, #3
 103 0032 FFF7FEFF 		bl	led_execute_sequence
 104              	.LVL7:
  60:Core/Src/state_machine.c **** 
  61:Core/Src/state_machine.c ****     for (int i = 0; i <= 123; i++) {
 105              		.loc 1 61 5 view .LVU16
 106              	.LBB2:
 107              		.loc 1 61 10 view .LVU17
 108              		.loc 1 61 14 is_stmt 0 view .LVU18
 109 0036 0024     		movs	r4, #0
 110              		.loc 1 61 5 view .LVU19
 111 0038 0FE0     		b	.L6
 112              	.LVL8:
 113              	.L10:
ARM GAS  /var/folders/bp/ytvqs5756l50d7lg2fzmjpcr0000gn/T//ccfOewdF.s 			page 4


 114              		.loc 1 61 5 view .LVU20
 115              	.LBE2:
  54:Core/Src/state_machine.c ****         haptic_feedback_start();
 116              		.loc 1 54 9 is_stmt 1 view .LVU21
 117 003a FFF7FEFF 		bl	haptic_feedback_start
 118              	.LVL9:
  55:Core/Src/state_machine.c ****         haptic_feedback_stop();
 119              		.loc 1 55 9 view .LVU22
 120 003e FA20     		movs	r0, #250
 121 0040 8000     		lsls	r0, r0, #2
 122 0042 FFF7FEFF 		bl	HAL_Delay
 123              	.LVL10:
  56:Core/Src/state_machine.c ****     }
 124              		.loc 1 56 9 view .LVU23
 125 0046 FFF7FEFF 		bl	haptic_feedback_stop
 126              	.LVL11:
 127 004a F1E7     		b	.L5
 128              	.LVL12:
 129              	.L7:
 130              	.LBB3:
  62:Core/Src/state_machine.c ****         led_on(i);
  63:Core/Src/state_machine.c ****         // Play a different waveform
  64:Core/Src/state_machine.c ****         if (haptic_feedback_play_waveform(i) == HAL_OK) { // Play waveform index 2
  65:Core/Src/state_machine.c ****             haptic_feedback_start();
  66:Core/Src/state_machine.c ****             HAL_Delay(1000); // Play for 1 second
  67:Core/Src/state_machine.c ****             haptic_feedback_stop();
  68:Core/Src/state_machine.c ****         }
  69:Core/Src/state_machine.c **** 
  70:Core/Src/state_machine.c ****         led_off();
 131              		.loc 1 70 9 view .LVU24
 132 004c FFF7FEFF 		bl	led_off
 133              	.LVL13:
  71:Core/Src/state_machine.c ****         HAL_Delay(1000); // Wait between waveforms
 134              		.loc 1 71 9 view .LVU25
 135 0050 FA20     		movs	r0, #250
 136 0052 8000     		lsls	r0, r0, #2
 137 0054 FFF7FEFF 		bl	HAL_Delay
 138              	.LVL14:
  61:Core/Src/state_machine.c ****         led_on(i);
 139              		.loc 1 61 32 discriminator 2 view .LVU26
 140 0058 0134     		adds	r4, r4, #1
 141              	.LVL15:
 142              	.L6:
  61:Core/Src/state_machine.c ****         led_on(i);
 143              		.loc 1 61 23 discriminator 1 view .LVU27
 144 005a 7B2C     		cmp	r4, #123
 145 005c 11DC     		bgt	.L11
  62:Core/Src/state_machine.c ****         led_on(i);
 146              		.loc 1 62 9 view .LVU28
 147 005e E5B2     		uxtb	r5, r4
 148 0060 2800     		movs	r0, r5
 149 0062 FFF7FEFF 		bl	led_on
 150              	.LVL16:
  64:Core/Src/state_machine.c ****             haptic_feedback_start();
 151              		.loc 1 64 9 view .LVU29
  64:Core/Src/state_machine.c ****             haptic_feedback_start();
 152              		.loc 1 64 13 is_stmt 0 view .LVU30
ARM GAS  /var/folders/bp/ytvqs5756l50d7lg2fzmjpcr0000gn/T//ccfOewdF.s 			page 5


 153 0066 2800     		movs	r0, r5
 154 0068 FFF7FEFF 		bl	haptic_feedback_play_waveform
 155              	.LVL17:
  64:Core/Src/state_machine.c ****             haptic_feedback_start();
 156              		.loc 1 64 12 discriminator 1 view .LVU31
 157 006c 0028     		cmp	r0, #0
 158 006e EDD1     		bne	.L7
  65:Core/Src/state_machine.c ****             HAL_Delay(1000); // Play for 1 second
 159              		.loc 1 65 13 is_stmt 1 view .LVU32
 160 0070 FFF7FEFF 		bl	haptic_feedback_start
 161              	.LVL18:
  66:Core/Src/state_machine.c ****             haptic_feedback_stop();
 162              		.loc 1 66 13 view .LVU33
 163 0074 FA20     		movs	r0, #250
 164 0076 8000     		lsls	r0, r0, #2
 165 0078 FFF7FEFF 		bl	HAL_Delay
 166              	.LVL19:
  67:Core/Src/state_machine.c ****         }
 167              		.loc 1 67 13 view .LVU34
 168 007c FFF7FEFF 		bl	haptic_feedback_stop
 169              	.LVL20:
 170 0080 E4E7     		b	.L7
 171              	.L11:
 172              	.LBE3:
  72:Core/Src/state_machine.c ****     }
  73:Core/Src/state_machine.c **** 
  74:Core/Src/state_machine.c ****     // Test real-time playback (RTP) mode with amplitude control
  75:Core/Src/state_machine.c ****     if (haptic_feedback_rtp_mode(128) == HAL_OK) { // Set amplitude to mid-range
 173              		.loc 1 75 5 view .LVU35
 174              		.loc 1 75 9 is_stmt 0 view .LVU36
 175 0082 8020     		movs	r0, #128
 176 0084 FFF7FEFF 		bl	haptic_feedback_rtp_mode
 177              	.LVL21:
 178              		.loc 1 75 8 discriminator 1 view .LVU37
 179 0088 0028     		cmp	r0, #0
 180 008a 06D0     		beq	.L12
 181              	.L9:
  76:Core/Src/state_machine.c ****         HAL_Delay(1000); // Play RTP mode for 1 second
  77:Core/Src/state_machine.c ****         haptic_feedback_stop();
  78:Core/Src/state_machine.c ****     }
  79:Core/Src/state_machine.c **** 
  80:Core/Src/state_machine.c ****     // Disable the haptic feedback controller after tests are completed
  81:Core/Src/state_machine.c ****     haptic_feedback_disable();
 182              		.loc 1 81 5 is_stmt 1 view .LVU38
 183 008c FFF7FEFF 		bl	haptic_feedback_disable
 184              	.LVL22:
  82:Core/Src/state_machine.c **** 
  83:Core/Src/state_machine.c ****     // Add a small delay before transitioning out of the test state
  84:Core/Src/state_machine.c ****     HAL_Delay(500);
 185              		.loc 1 84 5 view .LVU39
 186 0090 FA20     		movs	r0, #250
 187 0092 4000     		lsls	r0, r0, #1
 188 0094 FFF7FEFF 		bl	HAL_Delay
 189              	.LVL23:
  85:Core/Src/state_machine.c **** }
 190              		.loc 1 85 1 is_stmt 0 view .LVU40
 191              		@ sp needed
ARM GAS  /var/folders/bp/ytvqs5756l50d7lg2fzmjpcr0000gn/T//ccfOewdF.s 			page 6


 192              	.LVL24:
 193              		.loc 1 85 1 view .LVU41
 194 0098 70BD     		pop	{r4, r5, r6, pc}
 195              	.LVL25:
 196              	.L12:
  76:Core/Src/state_machine.c ****         HAL_Delay(1000); // Play RTP mode for 1 second
 197              		.loc 1 76 9 is_stmt 1 view .LVU42
 198 009a FA30     		adds	r0, r0, #250
 199 009c 8000     		lsls	r0, r0, #2
 200 009e FFF7FEFF 		bl	HAL_Delay
 201              	.LVL26:
  77:Core/Src/state_machine.c ****     }
 202              		.loc 1 77 9 view .LVU43
 203 00a2 FFF7FEFF 		bl	haptic_feedback_stop
 204              	.LVL27:
 205 00a6 F1E7     		b	.L9
 206              		.cfi_endproc
 207              	.LFE42:
 209              		.section	.text.state_machine_update,"ax",%progbits
 210              		.align	1
 211              		.global	state_machine_update
 212              		.syntax unified
 213              		.code	16
 214              		.thumb_func
 216              	state_machine_update:
 217              	.LFB41:
   9:Core/Src/state_machine.c ****     switch (current_state) {
 218              		.loc 1 9 29 view -0
 219              		.cfi_startproc
 220              		@ args = 0, pretend = 0, frame = 0
 221              		@ frame_needed = 0, uses_anonymous_args = 0
 222 0000 10B5     		push	{r4, lr}
 223              	.LCFI1:
 224              		.cfi_def_cfa_offset 8
 225              		.cfi_offset 4, -8
 226              		.cfi_offset 14, -4
  10:Core/Src/state_machine.c ****         case DEVICE_STATE_SLEEP_MODE:
 227              		.loc 1 10 5 view .LVU45
 228 0002 044B     		ldr	r3, .L16
 229 0004 1B78     		ldrb	r3, [r3]
 230 0006 062B     		cmp	r3, #6
 231 0008 00D0     		beq	.L15
 232              	.L13:
  33:Core/Src/state_machine.c **** 
 233              		.loc 1 33 1 is_stmt 0 view .LVU46
 234              		@ sp needed
 235 000a 10BD     		pop	{r4, pc}
 236              	.L15:
  30:Core/Src/state_machine.c ****             break;
 237              		.loc 1 30 13 is_stmt 1 view .LVU47
 238 000c FFF7FEFF 		bl	handle_test_state
 239              	.LVL28:
  31:Core/Src/state_machine.c ****     }
 240              		.loc 1 31 13 view .LVU48
  33:Core/Src/state_machine.c **** 
 241              		.loc 1 33 1 is_stmt 0 view .LVU49
 242 0010 FBE7     		b	.L13
ARM GAS  /var/folders/bp/ytvqs5756l50d7lg2fzmjpcr0000gn/T//ccfOewdF.s 			page 7


 243              	.L17:
 244 0012 C046     		.align	2
 245              	.L16:
 246 0014 00000000 		.word	current_state
 247              		.cfi_endproc
 248              	.LFE41:
 250              		.global	current_state
 251              		.section	.bss.current_state,"aw",%nobits
 254              	current_state:
 255 0000 00       		.space	1
 256              		.text
 257              	.Letext0:
 258              		.file 2 "/Applications/ArmGNUToolchain/14.2.rel1/arm-none-eabi/arm-none-eabi/include/machine/_defa
 259              		.file 3 "/Applications/ArmGNUToolchain/14.2.rel1/arm-none-eabi/arm-none-eabi/include/sys/_stdint.h
 260              		.file 4 "Drivers/STM32F0xx_HAL_Driver/Inc/stm32f0xx_hal_def.h"
 261              		.file 5 "Core/Inc/haptic_feedback_controller.h"
 262              		.file 6 "Core/Inc/led_controller.h"
 263              		.file 7 "Core/Inc/state_machine.h"
 264              		.file 8 "Drivers/STM32F0xx_HAL_Driver/Inc/stm32f0xx_hal.h"
ARM GAS  /var/folders/bp/ytvqs5756l50d7lg2fzmjpcr0000gn/T//ccfOewdF.s 			page 8


DEFINED SYMBOLS
                            *ABS*:00000000 state_machine.c
/var/folders/bp/ytvqs5756l50d7lg2fzmjpcr0000gn/T//ccfOewdF.s:19     .text.state_machine_initialize:00000000 $t
/var/folders/bp/ytvqs5756l50d7lg2fzmjpcr0000gn/T//ccfOewdF.s:25     .text.state_machine_initialize:00000000 state_machine_initialize
/var/folders/bp/ytvqs5756l50d7lg2fzmjpcr0000gn/T//ccfOewdF.s:43     .text.state_machine_initialize:00000008 $d
/var/folders/bp/ytvqs5756l50d7lg2fzmjpcr0000gn/T//ccfOewdF.s:254    .bss.current_state:00000000 current_state
/var/folders/bp/ytvqs5756l50d7lg2fzmjpcr0000gn/T//ccfOewdF.s:48     .text.handle_test_state:00000000 $t
/var/folders/bp/ytvqs5756l50d7lg2fzmjpcr0000gn/T//ccfOewdF.s:54     .text.handle_test_state:00000000 handle_test_state
/var/folders/bp/ytvqs5756l50d7lg2fzmjpcr0000gn/T//ccfOewdF.s:210    .text.state_machine_update:00000000 $t
/var/folders/bp/ytvqs5756l50d7lg2fzmjpcr0000gn/T//ccfOewdF.s:216    .text.state_machine_update:00000000 state_machine_update
/var/folders/bp/ytvqs5756l50d7lg2fzmjpcr0000gn/T//ccfOewdF.s:246    .text.state_machine_update:00000014 $d
/var/folders/bp/ytvqs5756l50d7lg2fzmjpcr0000gn/T//ccfOewdF.s:255    .bss.current_state:00000000 $d

UNDEFINED SYMBOLS
haptic_feedback_enable
led_execute_sequence
HAL_Delay
haptic_feedback_set_actuator_type
haptic_feedback_set_mode
haptic_feedback_play_waveform
haptic_feedback_start
haptic_feedback_stop
led_off
led_on
haptic_feedback_rtp_mode
haptic_feedback_disable
